target datalayout = "e-m:e-p270:32:32-p271:32:32-p272:64:64-i64:64-i128:128-f80:128-n8:16:32:64-S128"
target triple = "x86_64-pc-linux-gnu"

%struct.H5WB_t = type { ptr, i64, ptr, i64, i64 }

@.str = private unnamed_addr constant [98 x i8] c"generated/home/dtcxzyw/WorkSpace/Projects/compilers/llvm-opt-benchmark/bench/hdf5/hdf5/src/H5WB.c\00", align 1
@__func__.H5WB_wrap = private unnamed_addr constant [10 x i8] c"H5WB_wrap\00", align 1
@H5E_RESOURCE_g = external global i64, align 8
@H5E_NOSPACE_g = external global i64, align 8
@.str.1 = private unnamed_addr constant [49 x i8] c"memory allocation failed for wrapped buffer info\00", align 1
@H5_H5WB_t_reg_free_list = internal global { i8, [3 x i8], i32, i32, [4 x i8], ptr, i64, ptr } { i8 0, [3 x i8] zeroinitializer, i32 0, i32 0, [4 x i8] zeroinitializer, ptr @.str.3, i64 40, ptr null }, align 8

; Function Attrs: nounwind uwtable
define ptr @H5WB_wrap(ptr noundef %0, i64 noundef %1) #0 {
  %3 = alloca ptr, align 8
  %4 = alloca i64, align 8
  %5 = alloca ptr, align 8
  %6 = alloca ptr, align 8
  %7 = alloca i8, align 1
  store ptr %0, ptr %3, align 8, !tbaa !3
  store i64 %1, ptr %4, align 8, !tbaa !7
  call void @llvm.lifetime.start.p0(i64 8, ptr %5) #4
  store ptr null, ptr %5, align 8, !tbaa !9
  call void @llvm.lifetime.start.p0(i64 8, ptr %6) #4
  call void @llvm.lifetime.start.p0(i64 1, ptr %7) #4
  store i8 0, ptr %7, align 1, !tbaa !11
  %8 = call noalias ptr @H5FL_reg_malloc(ptr noundef @H5_H5WB_t_reg_free_list)
  store ptr %8, ptr %5, align 8, !tbaa !9
  %9 = icmp eq ptr null, %8
  br i1 %9, label %10, label %29

10:                                               ; preds = %2
  br label %11

11:                                               ; preds = %10
  br label %12

12:                                               ; preds = %11
  br label %13

13:                                               ; preds = %12
  %14 = load i64, ptr @H5E_RESOURCE_g, align 8, !tbaa !7
  %15 = load i64, ptr @H5E_NOSPACE_g, align 8, !tbaa !7
  %16 = call i32 (ptr, ptr, i32, i64, i64, ptr, ...) @H5E_printf_stack(ptr noundef @.str, ptr noundef @__func__.H5WB_wrap, i32 noundef 105, i64 noundef %14, i64 noundef %15, ptr noundef @.str.1)
  br label %17

17:                                               ; preds = %13
  br label %18

18:                                               ; preds = %17
  store i8 1, ptr %7, align 1, !tbaa !11
  %19 = load i8, ptr %7, align 1, !tbaa !11, !range !13, !noundef !14
  %20 = trunc i8 %19 to i1
  %21 = zext i1 %20 to i8
  store i8 %21, ptr %7, align 1, !tbaa !11
  br label %22

22:                                               ; preds = %18
  br label %23

23:                                               ; preds = %22
  br label %24

24:                                               ; preds = %23
  store ptr null, ptr %6, align 8, !tbaa !9
  br label %43

25:                                               ; No predecessors!
  br label %26

26:                                               ; preds = %25
  br label %27

27:                                               ; preds = %26
  br label %28

28:                                               ; preds = %27
  br label %29

29:                                               ; preds = %28, %2
  %30 = load ptr, ptr %3, align 8, !tbaa !3
  %31 = load ptr, ptr %5, align 8, !tbaa !9
  %32 = getelementptr inbounds nuw %struct.H5WB_t, ptr %31, i32 0, i32 0
  store ptr %30, ptr %32, align 8, !tbaa !15
  %33 = load i64, ptr %4, align 8, !tbaa !7
  %34 = load ptr, ptr %5, align 8, !tbaa !9
  %35 = getelementptr inbounds nuw %struct.H5WB_t, ptr %34, i32 0, i32 1
  store i64 %33, ptr %35, align 8, !tbaa !17
  %36 = load ptr, ptr %5, align 8, !tbaa !9
  %37 = getelementptr inbounds nuw %struct.H5WB_t, ptr %36, i32 0, i32 2
  store ptr null, ptr %37, align 8, !tbaa !18
  %38 = load ptr, ptr %5, align 8, !tbaa !9
  %39 = getelementptr inbounds nuw %struct.H5WB_t, ptr %38, i32 0, i32 3
  store i64 0, ptr %39, align 8, !tbaa !19
  %40 = load ptr, ptr %5, align 8, !tbaa !9
  %41 = getelementptr inbounds nuw %struct.H5WB_t, ptr %40, i32 0, i32 4
  store i64 0, ptr %41, align 8, !tbaa !20
  %42 = load ptr, ptr %5, align 8, !tbaa !9
  store ptr %42, ptr %6, align 8, !tbaa !9
  br label %43

43:                                               ; preds = %29, %24
  %44 = load ptr, ptr %6, align 8, !tbaa !9
  %45 = icmp ne ptr %44, null
  br i1 %45, label %52, label %46

46:                                               ; preds = %43
  %47 = load ptr, ptr %5, align 8, !tbaa !9
  %48 = icmp ne ptr %47, null
  br i1 %48, label %49, label %52

49:                                               ; preds = %46
  %50 = load ptr, ptr %5, align 8, !tbaa !9
  %51 = call ptr @H5FL_reg_free(ptr noundef @H5_H5WB_t_reg_free_list, ptr noundef %50)
  store ptr %51, ptr %5, align 8, !tbaa !9
  br label %52

52:                                               ; preds = %49, %46, %43
  %53 = load ptr, ptr %6, align 8, !tbaa !9
  call void @llvm.lifetime.end.p0(i64 1, ptr %7) #4
  call void @llvm.lifetime.end.p0(i64 8, ptr %6) #4
  call void @llvm.lifetime.end.p0(i64 8, ptr %5) #4
  ret ptr %53
}