; Function Attrs: nounwind uwtable
define noalias ptr @H5WB_wrap(ptr noundef %0, i64 noundef %1) local_unnamed_addr #0 {
  %3 = tail call noalias ptr @H5FL_reg_malloc(ptr noundef nonnull @H5_H5WB_t_reg_free_list) #3
  %4 = icmp eq ptr %3, null
  br i1 %4, label %5, label %9

5:                                                ; preds = %2
  %6 = load i64, ptr @H5E_RESOURCE_g, align 8, !tbaa !3
  %7 = load i64, ptr @H5E_NOSPACE_g, align 8, !tbaa !3
  %8 = tail call i32 (ptr, ptr, i32, i64, i64, ptr, ...) @H5E_printf_stack(ptr noundef nonnull @.str, ptr noundef nonnull @__func__.H5WB_wrap, i32 noundef 105, i64 noundef %6, i64 noundef %7, ptr noundef nonnull @.str.1) #3
  br label %12

9:                                                ; preds = %2
  store ptr %0, ptr %3, align 8, !tbaa !7
  %10 = getelementptr inbounds nuw i8, ptr %3, i64 8
  store i64 %1, ptr %10, align 8, !tbaa !10
  %11 = getelementptr inbounds nuw i8, ptr %3, i64 16
  tail call void @llvm.memset.p0.i64(ptr noundef nonnull align 8 dereferenceable(24) %11, i8 0, i64 24, i1 false)
  br label %12

12:                                               ; preds = %5, %9
  ret ptr %3
}